; Function Attrs: nounwind sspstrong uwtable
define noundef ptr @cJSON_CreateIntArray(ptr noundef readonly %0, i32 noundef %1) local_unnamed_addr #8 {
  %3 = icmp slt i32 %1, 0
  %4 = icmp eq ptr %0, null
  %or.cond = or i1 %4, %3
  br i1 %or.cond, label %._crit_edge.thread48, label %5

5:                                                ; preds = %2
  %global_hooks.val.i = load ptr, ptr @global_hooks, align 8, !tbaa !18
  %6 = tail call ptr %global_hooks.val.i(i64 noundef 64) #31
  %.fr42 = freeze ptr %6
  %.not.i.i = icmp eq ptr %.fr42, null
  br i1 %.not.i.i, label %._crit_edge.thread48, label %cJSON_CreateArray.exit

cJSON_CreateArray.exit:                           ; preds = %5
  tail call void @llvm.memset.p0.i64(ptr noundef nonnull align 8 dereferenceable(64) %.fr42, i8 0, i64 64, i1 false)
  %7 = getelementptr inbounds nuw i8, ptr %.fr42, i64 24
  store i32 32, ptr %7, align 8, !tbaa !11
  %8 = zext nneg i32 %1 to i64
  %.not52 = icmp eq i32 %1, 0
  br i1 %.not52, label %._crit_edge.thread, label %.lr.ph.split.preheader

.lr.ph.split.preheader:                           ; preds = %cJSON_CreateArray.exit
  %9 = getelementptr inbounds nuw i8, ptr %.fr42, i64 16
  br label %.lr.ph.split

.lr.ph.split:                                     ; preds = %.lr.ph.split.preheader, %21
  %.039 = phi ptr [ %12, %21 ], [ null, %.lr.ph.split.preheader ]
  %.02338 = phi i64 [ %22, %21 ], [ 0, %.lr.ph.split.preheader ]
  %10 = getelementptr inbounds nuw i32, ptr %0, i64 %.02338
  %11 = load i32, ptr %10, align 4, !tbaa !56
  %global_hooks.val.i32 = load ptr, ptr @global_hooks, align 8, !tbaa !18
  %12 = tail call ptr %global_hooks.val.i32(i64 noundef 64) #31
  %.not.i.i33 = icmp eq ptr %12, null
  br i1 %.not.i.i33, label %.split.us, label %13

13:                                               ; preds = %.lr.ph.split
  %14 = sitofp i32 %11 to double
  tail call void @llvm.memset.p0.i64(ptr noundef nonnull align 8 dereferenceable(64) %12, i8 0, i64 64, i1 false)
  %15 = getelementptr inbounds nuw i8, ptr %12, i64 24
  store i32 8, ptr %15, align 8, !tbaa !11
  %16 = getelementptr inbounds nuw i8, ptr %12, i64 48
  store double %14, ptr %16, align 8, !tbaa !17
  %17 = getelementptr inbounds nuw i8, ptr %12, i64 40
  store i32 %11, ptr %17, align 8, !tbaa !27
  %.not31 = icmp eq i64 %.02338, 0
  br i1 %.not31, label %18, label %19

.split.us:                                        ; preds = %.lr.ph.split
  tail call void @cJSON_Delete(ptr noundef nonnull %.fr42)
  br label %._crit_edge.thread48

18:                                               ; preds = %13
  store ptr %12, ptr %9, align 8, !tbaa !25
  br label %21

19:                                               ; preds = %13
  store ptr %12, ptr %.039, align 8, !tbaa !24
  %20 = getelementptr inbounds nuw i8, ptr %12, i64 8
  store ptr %.039, ptr %20, align 8, !tbaa !40
  br label %21

21:                                               ; preds = %19, %18
  %22 = add nuw nsw i64 %.02338, 1
  %exitcond.not = icmp eq i64 %22, %8
  br i1 %exitcond.not, label %._crit_edge.thread, label %.lr.ph.split

._crit_edge.thread:                               ; preds = %21, %cJSON_CreateArray.exit
  %.0.lcssa47 = phi ptr [ null, %cJSON_CreateArray.exit ], [ %12, %21 ]
  %23 = getelementptr inbounds nuw i8, ptr %.fr42, i64 16
  %24 = load ptr, ptr %23, align 8, !tbaa !25
  %.not = icmp eq ptr %24, null
  br i1 %.not, label %._crit_edge.thread48, label %25

25:                                               ; preds = %._crit_edge.thread
  %26 = getelementptr inbounds nuw i8, ptr %24, i64 8
  store ptr %.0.lcssa47, ptr %26, align 8, !tbaa !40
  br label %._crit_edge.thread48

._crit_edge.thread48:                             ; preds = %5, %._crit_edge.thread, %25, %2, %.split.us
  %.024 = phi ptr [ null, %.split.us ], [ null, %2 ], [ %.fr42, %25 ], [ %.fr42, %._crit_edge.thread ], [ null, %5 ]
  ret ptr %.024
}